; Function Attrs: mustprogress uwtable
define internal void @_ZNSt17_Function_handlerIFvvEZNK3ade6passes19ConnectCommChannelsclENS2_16TypedPassContextIJNS1_4meta8CommNodeENS5_10DataObjectENS5_11CommChannelENS5_8NodeInfoENS5_20CommConsumerCallbackENS5_20CommProducerCallbackENS5_10FinalizersEEEEE9ConnectorE9_M_invokeERKSt9_Any_data(ptr nocapture noundef nonnull readonly align 8 dereferenceable(16) %0) #0 align 2 {
  %.val = load ptr, ptr %0, align 8
  %.val1 = load ptr, ptr %.val, align 8
  %2 = getelementptr i8, ptr %.val, i64 8
  %.val2 = load ptr, ptr %2, align 8
  %.not4.i.i.i = icmp eq ptr %.val1, %.val2
  br i1 %.not4.i.i.i, label %_ZSt10__invoke_rIvRZNK3ade6passes19ConnectCommChannelsclENS1_16TypedPassContextIJNS0_4meta8CommNodeENS4_10DataObjectENS4_11CommChannelENS4_8NodeInfoENS4_20CommConsumerCallbackENS4_20CommProducerCallbackENS4_10FinalizersEEEEE9ConnectorJEENSt9enable_ifIXsr6__and_ISt7is_voidIT_ESt14__is_invocableIT0_JDpT1_EEEE5valueESH_E4typeEOSK_DpOSL_.exit, label %.lr.ph.i.i.i

.lr.ph.i.i.i:                                     ; preds = %1, %_ZNKSt8functionIFvvEEclEv.exit.i.i.i
  %.sroa.01.05.i.i.i = phi ptr [ %8, %_ZNKSt8functionIFvvEEclEv.exit.i.i.i ], [ %.val1, %1 ]
  %3 = getelementptr inbounds i8, ptr %.sroa.01.05.i.i.i, i64 16
  %4 = load ptr, ptr %3, align 8
  %.not.i.i.i.i.i = icmp eq ptr %4, null
  br i1 %.not.i.i.i.i.i, label %5, label %_ZNKSt8functionIFvvEEclEv.exit.i.i.i

5:                                                ; preds = %.lr.ph.i.i.i
  tail call void @_ZSt25__throw_bad_function_callv() #22
  unreachable

_ZNKSt8functionIFvvEEclEv.exit.i.i.i:             ; preds = %.lr.ph.i.i.i
  %6 = getelementptr inbounds i8, ptr %.sroa.01.05.i.i.i, i64 24
  %7 = load ptr, ptr %6, align 8
  tail call void %7(ptr noundef nonnull align 8 dereferenceable(16) %.sroa.01.05.i.i.i)
  %8 = getelementptr inbounds i8, ptr %.sroa.01.05.i.i.i, i64 32
  %.not.i.i.i = icmp eq ptr %8, %.val2
  br i1 %.not.i.i.i, label %_ZSt10__invoke_rIvRZNK3ade6passes19ConnectCommChannelsclENS1_16TypedPassContextIJNS0_4meta8CommNodeENS4_10DataObjectENS4_11CommChannelENS4_8NodeInfoENS4_20CommConsumerCallbackENS4_20CommProducerCallbackENS4_10FinalizersEEEEE9ConnectorJEENSt9enable_ifIXsr6__and_ISt7is_voidIT_ESt14__is_invocableIT0_JDpT1_EEEE5valueESH_E4typeEOSK_DpOSL_.exit, label %.lr.ph.i.i.i

_ZSt10__invoke_rIvRZNK3ade6passes19ConnectCommChannelsclENS1_16TypedPassContextIJNS0_4meta8CommNodeENS4_10DataObjectENS4_11CommChannelENS4_8NodeInfoENS4_20CommConsumerCallbackENS4_20CommProducerCallbackENS4_10FinalizersEEEEE9ConnectorJEENSt9enable_ifIXsr6__and_ISt7is_voidIT_ESt14__is_invocableIT0_JDpT1_EEEE5valueESH_E4typeEOSK_DpOSL_.exit: ; preds = %_ZNKSt8functionIFvvEEclEv.exit.i.i.i, %1
  ret void
}